target datalayout = "e-m:e-p270:32:32-p271:32:32-p272:64:64-i64:64-i128:128-f80:128-n8:16:32:64-S128"
target triple = "x86_64-pc-linux-gnu"

%struct._dcerpc_info = type { ptr, i32, i64, i8, i8, i8, i32, i32, i32, i32, i32, i32, i32, i32, ptr, ptr, ptr, ptr, %struct.anon }
%struct.anon = type { i8, ptr, ptr, ptr, i8 }

; Function Attrs: alwaysinline nounwind
define internal ptr @memset.inline(ptr %0, i32 %1, i64 %2) #9 {
  %4 = alloca ptr, align 8
  %5 = alloca i32, align 4
  %6 = alloca i64, align 8
  store ptr %0, ptr %4, align 8
  store i32 %1, ptr %5, align 4
  store i64 %2, ptr %6, align 8
  %7 = load ptr, ptr %4, align 8
  %8 = load i32, ptr %5, align 4
  %9 = load i64, ptr %6, align 8
  %10 = load ptr, ptr %4, align 8
  %11 = call i64 @llvm.objectsize.i64.p0(ptr %10, i1 false, i1 true, i1 true)
  %12 = call ptr @__memset_chk(ptr noundef %7, i32 noundef %8, i64 noundef %9, i64 noundef %11) #19
  ret ptr %12
}

; Function Attrs: null_pointer_is_valid sspstrong uwtable
define hidden void @free_ndr_pointer_list(ptr noundef %0) #0 {
  %2 = alloca ptr, align 8
  %3 = alloca ptr, align 8
  store ptr %0, ptr %2, align 8
  br label %4

4:                                                ; preds = %10, %1
  %5 = load ptr, ptr %2, align 8
  %6 = getelementptr inbounds nuw %struct._dcerpc_info, ptr %5, i32 0, i32 18
  %7 = getelementptr inbounds nuw %struct.anon, ptr %6, i32 0, i32 3
  %8 = load ptr, ptr %7, align 8
  %9 = icmp ne ptr %8, null
  br i1 %9, label %10, label %26

10:                                               ; preds = %4
  call void @llvm.lifetime.start.p0(i64 8, ptr %3) #19
  %11 = load ptr, ptr %2, align 8
  %12 = getelementptr inbounds nuw %struct._dcerpc_info, ptr %11, i32 0, i32 18
  %13 = getelementptr inbounds nuw %struct.anon, ptr %12, i32 0, i32 3
  %14 = load ptr, ptr %13, align 8
  %15 = call ptr @g_slist_nth_data(ptr noundef %14, i32 noundef 0)
  store ptr %15, ptr %3, align 8
  %16 = load ptr, ptr %2, align 8
  %17 = getelementptr inbounds nuw %struct._dcerpc_info, ptr %16, i32 0, i32 18
  %18 = getelementptr inbounds nuw %struct.anon, ptr %17, i32 0, i32 3
  %19 = load ptr, ptr %18, align 8
  %20 = load ptr, ptr %3, align 8
  %21 = call ptr @g_slist_remove(ptr noundef %19, ptr noundef %20)
  %22 = load ptr, ptr %2, align 8
  %23 = getelementptr inbounds nuw %struct._dcerpc_info, ptr %22, i32 0, i32 18
  %24 = getelementptr inbounds nuw %struct.anon, ptr %23, i32 0, i32 3
  store ptr %21, ptr %24, align 8
  %25 = load ptr, ptr %3, align 8
  call void @g_slist_free_full(ptr noundef %25, ptr noundef @g_free)
  call void @llvm.lifetime.end.p0(i64 8, ptr %3) #19
  br label %4, !llvm.loop !17

26:                                               ; preds = %4
  %27 = load ptr, ptr %2, align 8
  %28 = getelementptr inbounds nuw %struct._dcerpc_info, ptr %27, i32 0, i32 18
  %29 = getelementptr inbounds nuw %struct.anon, ptr %28, i32 0, i32 3
  %30 = load ptr, ptr %29, align 8
  call void @g_slist_free_full(ptr noundef %30, ptr noundef @g_free)
  %31 = load ptr, ptr %2, align 8
  %32 = getelementptr inbounds nuw %struct._dcerpc_info, ptr %31, i32 0, i32 18
  %33 = getelementptr inbounds nuw %struct.anon, ptr %32, i32 0, i32 2
  %34 = load ptr, ptr %33, align 8
  %35 = icmp ne ptr %34, null
  br i1 %35, label %36, label %41

36:                                               ; preds = %26
  %37 = load ptr, ptr %2, align 8
  %38 = getelementptr inbounds nuw %struct._dcerpc_info, ptr %37, i32 0, i32 18
  %39 = getelementptr inbounds nuw %struct.anon, ptr %38, i32 0, i32 2
  %40 = load ptr, ptr %39, align 8
  call void @g_hash_table_destroy(ptr noundef %40)
  br label %41

41:                                               ; preds = %36, %26
  %42 = load ptr, ptr %2, align 8
  %43 = getelementptr inbounds nuw %struct._dcerpc_info, ptr %42, i32 0, i32 18
  %44 = call ptr @memset.inline(ptr noundef %43, i32 noundef 0, i64 noundef 40) #19
  ret void
}