; Function Attrs: null_pointer_is_valid sspstrong uwtable
define hidden void @free_ndr_pointer_list(ptr noundef %0) local_unnamed_addr #0 {
  %2 = getelementptr inbounds nuw i8, ptr %0, i64 120
  %3 = load ptr, ptr %2, align 8
  %.not12 = icmp eq ptr %3, null
  br i1 %.not12, label %._crit_edge, label %.lr.ph

.lr.ph:                                           ; preds = %1, %.lr.ph
  %4 = phi ptr [ %8, %.lr.ph ], [ %3, %1 ]
  %5 = tail call ptr @g_slist_nth_data(ptr noundef nonnull %4, i32 noundef 0)
  %6 = load ptr, ptr %2, align 8
  %7 = tail call ptr @g_slist_remove(ptr noundef %6, ptr noundef %5)
  store ptr %7, ptr %2, align 8
  tail call void @g_slist_free_full(ptr noundef %5, ptr noundef nonnull @g_free)
  %8 = load ptr, ptr %2, align 8
  %.not = icmp eq ptr %8, null
  br i1 %.not, label %._crit_edge, label %.lr.ph, !llvm.loop !17

._crit_edge:                                      ; preds = %.lr.ph, %1
  tail call void @g_slist_free_full(ptr noundef null, ptr noundef nonnull @g_free)
  %9 = getelementptr inbounds nuw i8, ptr %0, i64 112
  %10 = load ptr, ptr %9, align 8
  %.not11 = icmp eq ptr %10, null
  br i1 %.not11, label %12, label %11

11:                                               ; preds = %._crit_edge
  tail call void @g_hash_table_destroy(ptr noundef nonnull %10)
  br label %12

12:                                               ; preds = %11, %._crit_edge
  %13 = getelementptr inbounds nuw i8, ptr %0, i64 96
  tail call void @llvm.memset.p0.i64(ptr noundef nonnull align 1 dereferenceable(40) %13, i8 noundef 0, i64 noundef 40, i1 noundef false) #19
  ret void
}